; Function Attrs: mustprogress nofree norecurse nosync nounwind willreturn memory(readwrite, inaccessiblemem: none) uwtable
define void @lv_text_encoded_letter_next_2(ptr nocapture noundef readonly %0, ptr nocapture noundef writeonly %1, ptr nocapture noundef writeonly %2, ptr noundef %3) local_unnamed_addr #8 {
  %5 = tail call i32 @lv_text_utf8_next(ptr noundef %0, ptr noundef %3)
  store i32 %5, ptr %1, align 4, !tbaa !6
  %.not = icmp eq i32 %5, 0
  br i1 %.not, label %11, label %6

6:                                                ; preds = %4
  %7 = load i32, ptr %3, align 4, !tbaa !6
  %8 = zext i32 %7 to i64
  %9 = getelementptr inbounds nuw i8, ptr %0, i64 %8
  %10 = tail call i32 @lv_text_utf8_next(ptr noundef %9, ptr noundef null)
  br label %11

11:                                               ; preds = %4, %6
  %12 = phi i32 [ %10, %6 ], [ 0, %4 ]
  store i32 %12, ptr %2, align 4, !tbaa !6
  ret void
}